target datalayout = "e-m:e-p270:32:32-p271:32:32-p272:64:64-i64:64-i128:128-f80:128-n8:16:32:64-S128"
target triple = "x86_64-pc-linux-gnu"

; Function Attrs: nounwind ssp uwtable
define internal ptr @decode_decimal(ptr noundef %0, ptr noundef %1) #0 {
  %3 = alloca ptr, align 8
  %4 = alloca ptr, align 8
  %5 = alloca ptr, align 8
  %6 = alloca ptr, align 8
  %7 = alloca i64, align 8
  %8 = alloca i32, align 4
  %9 = alloca i32, align 4
  store ptr %0, ptr %4, align 8
  store ptr %1, ptr %5, align 8
  call void @llvm.lifetime.start.p0(i64 8, ptr %6) #7
  call void @llvm.lifetime.start.p0(i64 8, ptr %7) #7
  store i64 0, ptr %7, align 8
  %10 = load ptr, ptr %4, align 8
  store ptr %10, ptr %6, align 8
  br label %11

11:                                               ; preds = %44, %2
  call void @llvm.lifetime.start.p0(i64 4, ptr %8) #7
  %12 = load ptr, ptr %4, align 8
  %13 = load i8, ptr %12, align 1
  %14 = sext i8 %13 to i32
  store i32 %14, ptr %8, align 4
  %15 = load i32, ptr %8, align 4
  %16 = icmp slt i32 %15, 48
  br i1 %16, label %20, label %17

17:                                               ; preds = %11
  %18 = load i32, ptr %8, align 4
  %19 = icmp sgt i32 %18, 57
  br i1 %19, label %20, label %21

20:                                               ; preds = %17, %11
  store i32 2, ptr %9, align 4
  br label %41

21:                                               ; preds = %17
  %22 = load i32, ptr %8, align 4
  %23 = sub i32 %22, 48
  store i32 %23, ptr %8, align 4
  %24 = load i64, ptr %7, align 8
  %25 = icmp ugt i64 %24, 1844674407370955161
  br i1 %25, label %26, label %27

26:                                               ; preds = %21
  store ptr null, ptr %3, align 8
  store i32 1, ptr %9, align 4
  br label %41

27:                                               ; preds = %21
  %28 = load i64, ptr %7, align 8
  %29 = mul i64 %28, 10
  store i64 %29, ptr %7, align 8
  %30 = load i32, ptr %8, align 4
  %31 = sext i32 %30 to i64
  %32 = load i64, ptr %7, align 8
  %33 = sub i64 -1, %32
  %34 = icmp ugt i64 %31, %33
  br i1 %34, label %35, label %36

35:                                               ; preds = %27
  store ptr null, ptr %3, align 8
  store i32 1, ptr %9, align 4
  br label %41

36:                                               ; preds = %27
  %37 = load i32, ptr %8, align 4
  %38 = sext i32 %37 to i64
  %39 = load i64, ptr %7, align 8
  %40 = add i64 %39, %38
  store i64 %40, ptr %7, align 8
  store i32 0, ptr %9, align 4
  br label %41

41:                                               ; preds = %36, %35, %26, %20
  call void @llvm.lifetime.end.p0(i64 4, ptr %8) #7
  %42 = load i32, ptr %9, align 4
  switch i32 %42, label %66 [
    i32 0, label %43
    i32 2, label %47
  ]

43:                                               ; preds = %41
  br label %44

44:                                               ; preds = %43
  %45 = load ptr, ptr %4, align 8
  %46 = getelementptr i8, ptr %45, i32 1
  store ptr %46, ptr %4, align 8
  br label %11

47:                                               ; preds = %41
  %48 = load ptr, ptr %4, align 8
  %49 = load ptr, ptr %6, align 8
  %50 = icmp eq ptr %48, %49
  br i1 %50, label %61, label %51

51:                                               ; preds = %47
  %52 = load ptr, ptr %6, align 8
  %53 = load i8, ptr %52, align 1
  %54 = sext i8 %53 to i32
  %55 = icmp eq i32 %54, 48
  br i1 %55, label %56, label %62

56:                                               ; preds = %51
  %57 = load ptr, ptr %4, align 8
  %58 = load ptr, ptr %6, align 8
  %59 = getelementptr i8, ptr %58, i64 1
  %60 = icmp ne ptr %57, %59
  br i1 %60, label %61, label %62

61:                                               ; preds = %56, %47
  store ptr null, ptr %3, align 8
  store i32 1, ptr %9, align 4
  br label %66

62:                                               ; preds = %56, %51
  %63 = load i64, ptr %7, align 8
  %64 = load ptr, ptr %5, align 8
  store i64 %63, ptr %64, align 8
  %65 = load ptr, ptr %4, align 8
  store ptr %65, ptr %3, align 8
  store i32 1, ptr %9, align 4
  br label %66

66:                                               ; preds = %62, %61, %41
  call void @llvm.lifetime.end.p0(i64 8, ptr %7) #7
  call void @llvm.lifetime.end.p0(i64 8, ptr %6) #7
  %67 = load ptr, ptr %3, align 8
  ret ptr %67
}