; Function Attrs: nofree norecurse nosync nounwind ssp memory(argmem: readwrite) uwtable
define internal fastcc noundef ptr @decode_decimal(ptr noundef readonly captures(address, ret: address, provenance) %0, ptr noundef nonnull writeonly captures(none) %1) unnamed_addr #3 {
  %3 = load i8, ptr %0, align 1
  %4 = add i8 %3, -58
  %or.cond39 = icmp ult i8 %4, -10
  br i1 %or.cond39, label %.thread, label %.lr.ph

.lr.ph:                                           ; preds = %2, %12
  %5 = phi i8 [ %15, %12 ], [ %3, %2 ]
  %.02241 = phi i64 [ %13, %12 ], [ 0, %2 ]
  %.02540 = phi ptr [ %14, %12 ], [ %0, %2 ]
  %6 = icmp ugt i64 %.02241, 1844674407370955161
  br i1 %6, label %.thread, label %7

7:                                                ; preds = %.lr.ph
  %narrow = add nsw i8 %5, -48
  %8 = mul nuw i64 %.02241, 10
  %9 = zext nneg i8 %narrow to i64
  %10 = xor i64 %8, -1
  %11 = icmp ugt i64 %9, %10
  br i1 %11, label %.thread, label %12

12:                                               ; preds = %7
  %13 = add i64 %8, %9
  %14 = getelementptr i8, ptr %.02540, i64 1
  %15 = load i8, ptr %14, align 1
  %16 = add i8 %15, -58
  %or.cond = icmp ult i8 %16, -10
  br i1 %or.cond, label %._crit_edge, label %.lr.ph

._crit_edge:                                      ; preds = %12
  %17 = icmp eq ptr %14, %0
  br i1 %17, label %.thread, label %18

18:                                               ; preds = %._crit_edge
  %19 = icmp ne i8 %3, 48
  %.not = icmp eq ptr %.02540, %0
  %or.cond29 = or i1 %.not, %19
  br i1 %or.cond29, label %20, label %.thread

20:                                               ; preds = %18
  store i64 %13, ptr %1, align 8
  br label %.thread

.thread:                                          ; preds = %7, %.lr.ph, %2, %._crit_edge, %18, %20
  %.2 = phi ptr [ %14, %20 ], [ null, %18 ], [ null, %._crit_edge ], [ null, %2 ], [ null, %.lr.ph ], [ null, %7 ]
  ret ptr %.2
}